; Function Attrs: mustprogress uwtable
define dso_local void @_ZN17b3PgsJacobiSolver13solveContactsEiP15b3RigidBodyDataP13b3InertiaDataiP10b3Contact4iPP17b3TypedConstraint(ptr noundef nonnull align 8 dereferenceable(448) %this, i32 noundef %numBodies, ptr noundef %bodies, ptr noundef %inertias, i32 noundef %numContacts, ptr noundef %contacts, i32 noundef %numConstraints, ptr noundef %constraints) local_unnamed_addr #5 align 2 personality ptr @__gxx_personality_v0 {
entry:
  %infoGlobal = alloca %struct.b3ContactSolverInfo, align 16
  %m_restitution.i = getelementptr inbounds i8, ptr %infoGlobal, i64 16
  store float 0.000000e+00, ptr %m_restitution.i, align 16
  %m_maxErrorReduction.i = getelementptr inbounds i8, ptr %infoGlobal, i64 24
  %m_numIterations.i = getelementptr inbounds i8, ptr %infoGlobal, i64 20
  %m_globalCfm.i = getelementptr inbounds i8, ptr %infoGlobal, i64 40
  store float 0.000000e+00, ptr %m_globalCfm.i, align 8
  store <4 x float> <float 2.000000e+01, float 1.000000e+00, float 0x3FC99999A0000000, float 0x3FE99999A0000000>, ptr %m_maxErrorReduction.i, align 8
  %m_splitImpulse.i = getelementptr inbounds i8, ptr %infoGlobal, i64 44
  %m_splitImpulsePenetrationThreshold.i = getelementptr inbounds i8, ptr %infoGlobal, i64 48
  store <4 x float> <float 0xBFA47AE140000000, float 0x3FB99999A0000000, float 0.000000e+00, float 0x3FEB333340000000>, ptr %m_splitImpulsePenetrationThreshold.i, align 16
  %m_solverMode.i = getelementptr inbounds i8, ptr %infoGlobal, i64 64
  %m_restingContactRestitutionThreshold.i = getelementptr inbounds i8, ptr %infoGlobal, i64 68
  store i32 2, ptr %m_restingContactRestitutionThreshold.i, align 4
  %m_minimumSolverBatchSize.i = getelementptr inbounds i8, ptr %infoGlobal, i64 72
  store i32 128, ptr %m_minimumSolverBatchSize.i, align 8
  %m_maxGyroscopicForce.i = getelementptr inbounds i8, ptr %infoGlobal, i64 76
  store <2 x float> <float 1.000000e+02, float 0x46293E5940000000>, ptr %m_maxGyroscopicForce.i, align 4
  store i32 0, ptr %m_splitImpulse.i, align 4
  store <4 x float> <float 0x3FE3333340000000, float 1.000000e+00, float 0x3FD3333340000000, float 0x3F91111120000000>, ptr %infoGlobal, align 16
  store i32 4, ptr %m_numIterations.i, align 4
  store i32 276, ptr %m_solverMode.i, align 16
  tail call void @b3EnterProfileZone(ptr noundef nonnull @.str)
  %vtable.i = load ptr, ptr %this, align 8
  %0 = load ptr, ptr %vtable.i, align 8
  %call.i = invoke noundef float %0(ptr noundef nonnull align 8 dereferenceable(448) %this, ptr noundef %bodies, ptr noundef %inertias, i32 noundef %numBodies, ptr noundef %contacts, i32 noundef %numContacts, ptr noundef %constraints, i32 noundef %numConstraints, ptr noundef nonnull align 4 dereferenceable(84) %infoGlobal)
          to label %invoke.cont.i unwind label %lpad.i

invoke.cont.i:                                    ; preds = %entry
  %vtable2.i = load ptr, ptr %this, align 8
  %vfn3.i = getelementptr inbounds i8, ptr %vtable2.i, i64 8
  %1 = load ptr, ptr %vfn3.i, align 8
  %call5.i = invoke noundef float %1(ptr noundef nonnull align 8 dereferenceable(448) %this, ptr noundef %constraints, i32 noundef %numConstraints, ptr noundef nonnull align 4 dereferenceable(84) %infoGlobal)
          to label %invoke.cont4.i unwind label %lpad.i

invoke.cont4.i:                                   ; preds = %invoke.cont.i
  %vtable6.i = load ptr, ptr %this, align 8
  %vfn7.i = getelementptr inbounds i8, ptr %vtable6.i, i64 24
  %2 = load ptr, ptr %vfn7.i, align 8
  %call9.i = invoke noundef float %2(ptr noundef nonnull align 8 dereferenceable(448) %this, ptr noundef %bodies, ptr noundef %inertias, i32 noundef %numBodies, ptr noundef nonnull align 4 dereferenceable(84) %infoGlobal)
          to label %invoke.cont8.i unwind label %lpad.i

invoke.cont8.i:                                   ; preds = %invoke.cont4.i
  invoke void @b3LeaveProfileZone()
          to label %_ZN17b3PgsJacobiSolver10solveGroupEP15b3RigidBodyDataP13b3InertiaDataiP10b3Contact4iPP17b3TypedConstraintiRK19b3ContactSolverInfo.exit unwind label %terminate.lpad.i.i

terminate.lpad.i.i:                               ; preds = %invoke.cont8.i
  %3 = landingpad { ptr, i32 }
          catch ptr null
  %4 = extractvalue { ptr, i32 } %3, 0
  call void @__clang_call_terminate(ptr %4) #19
  unreachable

lpad.i:                                           ; preds = %invoke.cont4.i, %invoke.cont.i, %entry
  %5 = landingpad { ptr, i32 }
          cleanup
  invoke void @b3LeaveProfileZone()
          to label %_ZN13b3ProfileZoneD2Ev.exit9.i unwind label %terminate.lpad.i8.i

terminate.lpad.i8.i:                              ; preds = %lpad.i
  %6 = landingpad { ptr, i32 }
          catch ptr null
  %7 = extractvalue { ptr, i32 } %6, 0
  call void @__clang_call_terminate(ptr %7) #19
  unreachable

_ZN13b3ProfileZoneD2Ev.exit9.i:                   ; preds = %lpad.i
  resume { ptr, i32 } %5

_ZN17b3PgsJacobiSolver10solveGroupEP15b3RigidBodyDataP13b3InertiaDataiP10b3Contact4iPP17b3TypedConstraintiRK19b3ContactSolverInfo.exit: ; preds = %invoke.cont8.i
  ret void
}